(lp0
V/champions/velkoz.html
p1
aV/champions/aatrox.html
p2
aV/champions/ahri.html
p3
aV/champions/akali.html
p4
aV/champions/alistar.html
p5
aV/champions/amumu.html
p6
aV/champions/anivia.html
p7
aV/champions/annie.html
p8
aV/champions/ashe.html
p9
aV/champions/blitzcrank.html
p10
aV/champions/brand.html
p11
aV/champions/caitlyn.html
p12
aV/champions/cassiopeia.html
p13
aV/champions/cho-gath.html
p14
aV/champions/corki.html
p15
aV/champions/darius.html
p16
aV/champions/diana.html
p17
aV/champions/dr-mundo.html
p18
aV/champions/draven.html
p19
aV/champions/elise.html
p20
aV/champions/evelynn.html
p21
aV/champions/ezreal.html
p22
aV/champions/fiddlesticks.html
p23
aV/champions/fiora.html
p24
aV/champions/fizz.html
p25
aV/champions/galio.html
p26
aV/champions/gangplank.html
p27
aV/champions/garen.html
p28
aV/champions/gragas.html
p29
aV/champions/graves.html
p30
aV/champions/hecarim.html
p31
aV/champions/heimerdinger.html
p32
aV/champions/irelia.html
p33
aV/champions/janna.html
p34
aV/champions/jarvan-iv.html
p35
aV/champions/jax.html
p36
aV/champions/jayce.html
p37
aV/champions/jinx.html
p38
aV/champions/karma.html
p39
aV/champions/karthus.html
p40
aV/champions/kassadin.html
p41
aV/champions/katarina.html
p42
aV/champions/kayle.html
p43
aV/champions/kennen.html
p44
aV/champions/kha-zix.html
p45
aV/champions/kog-maw.html
p46
aV/champions/leblanc.html
p47
aV/champions/lee-sin.html
p48
aV/champions/leona.html
p49
aV/champions/lissandra.html
p50
aV/champions/lucian.html
p51
aV/champions/lulu.html
p52
aV/champions/lux.html
p53
aV/champions/malphite.html
p54
aV/champions/malzahar.html
p55
aV/champions/maokai.html
p56
aV/champions/master-yi.html
p57
aV/champions/miss-fortune.html
p58
aV/champions/mordekaiser.html
p59
aV/champions/morgana.html
p60
aV/champions/nami.html
p61
aV/champions/nasus.html
p62
aV/champions/nautilus.html
p63
aV/champions/nidalee.html
p64
aV/champions/nocturne.html
p65
aV/champions/nunu.html
p66
aV/champions/olaf.html
p67
aV/champions/orianna.html
p68
aV/champions/pantheon.html
p69
aV/champions/poppy.html
p70
aV/champions/quinn.html
p71
aV/champions/rammus.html
p72
aV/champions/renekton.html
p73
aV/champions/rengar.html
p74
aV/champions/riven.html
p75
aV/champions/rumble.html
p76
aV/champions/ryze.html
p77
aV/champions/sejuani.html
p78
aV/champions/shaco.html
p79
aV/champions/shen.html
p80
aV/champions/shyvana.html
p81
aV/champions/singed.html
p82
aV/champions/sion.html
p83
aV/champions/sivir.html
p84
aV/champions/skarner.html
p85
aV/champions/sona.html
p86
aV/champions/soraka.html
p87
aV/champions/swain.html
p88
aV/champions/syndra.html
p89
aV/champions/talon.html
p90
aV/champions/taric.html
p91
aV/champions/teemo.html
p92
aV/champions/thresh.html
p93
aV/champions/tristana.html
p94
aV/champions/trundle.html
p95
aV/champions/tryndamere.html
p96
aV/champions/twisted-fate.html
p97
aV/champions/twitch.html
p98
aV/champions/udyr.html
p99
aV/champions/urgot.html
p100
aV/champions/varus.html
p101
aV/champions/vayne.html
p102
aV/champions/veigar.html
p103
aV/champions/vi.html
p104
aV/champions/viktor.html
p105
aV/champions/vladimir.html
p106
aV/champions/volibear.html
p107
aV/champions/warwick.html
p108
aV/champions/wukong.html
p109
aV/champions/xerath.html
p110
aV/champions/xin-zhao.html
p111
aV/champions/yasuo.html
p112
aV/champions/yorick.html
p113
aV/champions/zac.html
p114
aV/champions/zed.html
p115
aV/champions/ziggs.html
p116
aV/champions/zilean.html
p117
aV/champions/zyra.html
p118
a.