(dp0
VJax
p1
V/champions/jax.html
p2
sVTwisted Fate
p3
V/champions/twisted-fate.html
p4
sVShaco
p5
V/champions/shaco.html
p6
sVWarwick
p7
V/champions/warwick.html
p8
sVNidalee
p9
V/champions/nidalee.html
p10
sVZyra
p11
V/champions/zyra.html
p12
sVBrand
p13
V/champions/brand.html
p14
sVRammus
p15
V/champions/rammus.html
p16
sVCorki
p17
V/champions/corki.html
p18
sVAnivia
p19
V/champions/anivia.html
p20
sVTryndamere
p21
V/champions/tryndamere.html
p22
sVKha'Zix
p23
V/champions/kha-zix.html
p24
sVYorick
p25
V/champions/yorick.html
p26
sVXerath
p27
V/champions/xerath.html
p28
sVSivir
p29
V/champions/sivir.html
p30
sVRiven
p31
V/champions/riven.html
p32
sVOrianna
p33
V/champions/orianna.html
p34
sVGangplank
p35
V/champions/gangplank.html
p36
sVMalphite
p37
V/champions/malphite.html
p38
sVMiss Fortune
p39
V/champions/miss-fortune.html
p40
sVPoppy
p41
V/champions/poppy.html
p42
sVLee Sin
p43
V/champions/lee-sin.html
p44
sVKarthus
p45
V/champions/karthus.html
p46
sVJayce
p47
V/champions/jayce.html
p48
sVBlitzcrank
p49
V/champions/blitzcrank.html
p50
sVTrundle
p51
V/champions/trundle.html
p52
sVSejuani
p53
V/champions/sejuani.html
p54
sVGraves
p55
V/champions/graves.html
p56
sVLucian
p57
V/champions/lucian.html
p58
sVNocturne
p59
V/champions/nocturne.html
p60
sVLux
p61
V/champions/lux.html
p62
sVShyvana
p63
V/champions/shyvana.html
p64
sVRenekton
p65
V/champions/renekton.html
p66
sVFiora
p67
V/champions/fiora.html
p68
sVJinx
p69
V/champions/jinx.html
p70
sVFizz
p71
V/champions/fizz.html
p72
sVKassadin
p73
V/champions/kassadin.html
p74
sVSona
p75
V/champions/sona.html
p76
sVVladimir
p77
V/champions/vladimir.html
p78
sVViktor
p79
V/champions/viktor.html
p80
sVCassiopeia
p81
V/champions/cassiopeia.html
p82
sVMaokai
p83
V/champions/maokai.html
p84
sVThresh
p85
V/champions/thresh.html
p86
sVKayle
p87
V/champions/kayle.html
p88
sVHecarim
p89
V/champions/hecarim.html
p90
sVVel'Koz
p91
V/champions/velkoz.html
p92
sVOlaf
p93
V/champions/olaf.html
p94
sVZiggs
p95
V/champions/ziggs.html
p96
sVSyndra
p97
V/champions/syndra.html
p98
sVKarma
p99
V/champions/karma.html
p100
sVAnnie
p101
V/champions/annie.html
p102
sVAkali
p103
V/champions/akali.html
p104
sVLeBlanc
p105
V/champions/leblanc.html
p106
sVYasuo
p107
V/champions/yasuo.html
p108
sVKennen
p109
V/champions/kennen.html
p110
sVRengar
p111
V/champions/rengar.html
p112
sVRyze
p113
V/champions/ryze.html
p114
sVShen
p115
V/champions/shen.html
p116
sVTeemo
p117
V/champions/teemo.html
p118
sVDr. Mundo
p119
V/champions/dr-mundo.html
p120
sVPantheon
p121
V/champions/pantheon.html
p122
sVSwain
p123
V/champions/swain.html
p124
sVSion
p125
V/champions/sion.html
p126
sVVayne
p127
V/champions/vayne.html
p128
sVNasus
p129
V/champions/nasus.html
p130
sVFiddlesticks
p131
V/champions/fiddlesticks.html
p132
sVUdyr
p133
V/champions/udyr.html
p134
sVMorgana
p135
V/champions/morgana.html
p136
sVLeona
p137
V/champions/leona.html
p138
sVCaitlyn
p139
V/champions/caitlyn.html
p140
sVDarius
p141
V/champions/darius.html
p142
sVZilean
p143
V/champions/zilean.html
p144
sVRumble
p145
V/champions/rumble.html
p146
sVSkarner
p147
V/champions/skarner.html
p148
sVCho'Gath
p149
V/champions/cho-gath.html
p150
sVUrgot
p151
V/champions/urgot.html
p152
sVWukong
p153
V/champions/wukong.html
p154
sVAmumu
p155
V/champions/amumu.html
p156
sVGalio
p157
V/champions/galio.html
p158
sVHeimerdinger
p159
V/champions/heimerdinger.html
p160
sVVolibear
p161
V/champions/volibear.html
p162
sVAshe
p163
V/champions/ashe.html
p164
sVSinged
p165
V/champions/singed.html
p166
sVVarus
p167
V/champions/varus.html
p168
sVTwitch
p169
V/champions/twitch.html
p170
sVKog'Maw
p171
V/champions/kog-maw.html
p172
sVGaren
p173
V/champions/garen.html
p174
sVNunu
p175
V/champions/nunu.html
p176
sVElise
p177
V/champions/elise.html
p178
sVAlistar
p179
V/champions/alistar.html
p180
sVKatarina
p181
V/champions/katarina.html
p182
sVMordekaiser
p183
V/champions/mordekaiser.html
p184
sVJarvan IV
p185
V/champions/jarvan-iv.html
p186
sVZac
p187
V/champions/zac.html
p188
sVAatrox
p189
V/champions/aatrox.html
p190
sVDraven
p191
V/champions/draven.html
p192
sVTalon
p193
V/champions/talon.html
p194
sVXin Zhao
p195
V/champions/xin-zhao.html
p196
sVTaric
p197
V/champions/taric.html
p198
sVMalzahar
p199
V/champions/malzahar.html
p200
sVLissandra
p201
V/champions/lissandra.html
p202
sVDiana
p203
V/champions/diana.html
p204
sVTristana
p205
V/champions/tristana.html
p206
sVIrelia
p207
V/champions/irelia.html
p208
sVNami
p209
V/champions/nami.html
p210
sVSoraka
p211
V/champions/soraka.html
p212
sVVeigar
p213
V/champions/veigar.html
p214
sVJanna
p215
V/champions/janna.html
p216
sVNautilus
p217
V/champions/nautilus.html
p218
sVEvelynn
p219
V/champions/evelynn.html
p220
sVGragas
p221
V/champions/gragas.html
p222
sVZed
p223
V/champions/zed.html
p224
sVVi
p225
V/champions/vi.html
p226
sVLulu
p227
V/champions/lulu.html
p228
sVMaster Yi
p229
V/champions/master-yi.html
p230
sVAhri
p231
V/champions/ahri.html
p232
sVQuinn
p233
V/champions/quinn.html
p234
sVEzreal
p235
V/champions/ezreal.html
p236
s.