(dp0
VJax
p1
VGrandmaster at Arms
p2
sVTwisted Fate
p3
Vthe Card Master
p4
sVShaco
p5
Vthe Demon Jester
p6
sVWarwick
p7
Vthe Blood Hunter
p8
sVNidalee
p9
Vthe Bestial Huntress
p10
sVZyra
p11
VRise of the Thorns
p12
sVBrand
p13
Vthe Burning Vengeance
p14
sVRammus
p15
Vthe Armordillo
p16
sVCorki
p17
Vthe Daring Bombardier
p18
sVDarius
p19
Vthe Hand of Noxus
p20
sVTryndamere
p21
Vthe Barbarian King
p22
sVLeona
p23
Vthe Radiant Dawn
p24
sVKha'Zix
p25
Vthe Voidreaver
p26
sVYorick
p27
Vthe Gravedigger
p28
sVXerath
p29
Vthe Magus Ascendant
p30
sVSivir
p31
Vthe Battle Mistress
p32
sVRiven
p33
Vthe Exile
p34
sVOrianna
p35
Vthe Lady of Clockwork
p36
sVGangplank
p37
Vthe Saltwater Scourge
p38
sVMalphite
p39
VShard of the Monolith
p40
sVMiss Fortune
p41
Vthe Bounty Hunter
p42
sVPoppy
p43
Vthe Iron Ambassador
p44
sVLee Sin
p45
Vthe Blind Monk
p46
sVKarthus
p47
Vthe Deathsinger
p48
sVJayce
p49
Vthe Defender of Tomorrow
p50
sVBlitzcrank
p51
Vthe Great Steam Golem
p52
sVTrundle
p53
Vthe Troll King
p54
sVGraves
p55
Vthe Outlaw
p56
sVLucian
p57
Vthe Purifier
p58
sVNocturne
p59
Vthe Eternal Nightmare
p60
sVLux
p61
Vthe Lady of Luminosity
p62
sVShyvana
p63
Vthe Half-Dragon
p64
sVRenekton
p65
Vthe Butcher of the Sands
p66
sVFiora
p67
Vthe Grand Duelist
p68
sVJinx
p69
Vthe Loose Cannon
p70
sVFizz
p71
Vthe Tidal Trickster
p72
sVKassadin
p73
Vthe Void Walker
p74
sVSona
p75
VMaven of the Strings
p76
sVVladimir
p77
Vthe Crimson Reaper
p78
sVViktor
p79
Vthe Machine Herald
p80
sVCassiopeia
p81
Vthe Serpent's Embrace
p82
sVMaokai
p83
Vthe Twisted Treant
p84
sVThresh
p85
Vthe Chain Warden
p86
sVKayle
p87
VThe Judicator
p88
sVHecarim
p89
Vthe Shadow of War
p90
sVVel'Koz
p91
Vthe Eye of the Void
p92
sVOlaf
p93
Vthe Berserker
p94
sVZiggs
p95
Vthe Hexplosives Expert
p96
sVSyndra
p97
Vthe Dark Sovereign
p98
sVKarma
p99
Vthe Enlightened One
p100
sVAnnie
p101
Vthe Dark Child
p102
sVAkali
p103
Vthe Fist of Shadow
p104
sVVolibear
p105
Vthe Thunder's Roar
p106
sVYasuo
p107
Vthe Unforgiven
p108
sVKennen
p109
Vthe Heart of the Tempest
p110
sVRengar
p111
Vthe Pridestalker
p112
sVRyze
p113
Vthe Rogue Mage
p114
sVShen
p115
VEye of Twilight
p116
sVTeemo
p117
Vthe Swift Scout
p118
sVDr. Mundo
p119
Vthe Madman of Zaun
p120
sVPantheon
p121
Vthe Artisan of War
p122
sVSwain
p123
Vthe Master Tactician
p124
sVSion
p125
Vthe Undead Champion
p126
sVVayne
p127
Vthe Night Hunter
p128
sVNasus
p129
Vthe Curator of the Sands
p130
sVFiddlesticks
p131
Vthe Harbinger of Doom
p132
sVUdyr
p133
Vthe Spirit Walker
p134
sVMorgana
p135
VFallen Angel
p136
sVLeBlanc
p137
Vthe Deceiver
p138
sVCaitlyn
p139
Vthe Sheriff of Piltover
p140
sVSejuani
p141
Vthe Winter's Wrath
p142
sVZilean
p143
Vthe Chronokeeper
p144
sVRumble
p145
Vthe Mechanized Menace
p146
sVSkarner
p147
Vthe Crystal Vanguard
p148
sVCho'Gath
p149
Vthe Terror of the Void
p150
sVUrgot
p151
Vthe Headsman's Pride
p152
sVWukong
p153
Vthe Monkey King
p154
sVAmumu
p155
Vthe Sad Mummy
p156
sVGalio
p157
Vthe Sentinel's Sorrow
p158
sVHeimerdinger
p159
Vthe Revered Inventor
p160
sVAnivia
p161
Vthe Cryophoenix
p162
sVAshe
p163
Vthe Frost Archer
p164
sVSinged
p165
Vthe Mad Chemist
p166
sVVarus
p167
Vthe Arrow of Retribution
p168
sVTwitch
p169
Vthe Plague Rat
p170
sVKog'Maw
p171
Vthe Mouth of the Abyss
p172
sVGaren
p173
VThe Might of Demacia
p174
sVNunu
p175
Vthe Yeti Rider
p176
sVElise
p177
VThe Spider Queen
p178
sVAlistar
p179
Vthe Minotaur
p180
sVKatarina
p181
Vthe Sinister Blade
p182
sVMordekaiser
p183
Vthe Master of Metal
p184
sVJarvan IV
p185
Vthe Exemplar of Demacia
p186
sVZac
p187
Vthe Secret Weapon
p188
sVAatrox
p189
Vthe Darkin Blade
p190
sVDraven
p191
Vthe Glorious Executioner
p192
sVTalon
p193
Vthe Blade's Shadow
p194
sVXin Zhao
p195
Vthe Seneschal of Demacia
p196
sVTaric
p197
Vthe Gem Knight
p198
sVMalzahar
p199
Vthe Prophet of the Void
p200
sVLissandra
p201
Vthe Ice Witch
p202
sVDiana
p203
VScorn of the Moon
p204
sVTristana
p205
Vthe Megling Gunner
p206
sVIrelia
p207
Vthe Will of the Blades
p208
sVNami
p209
Vthe Tidecaller
p210
sVSoraka
p211
Vthe Starchild
p212
sVVeigar
p213
Vthe Tiny Master of Evil
p214
sVJanna
p215
Vthe Storm's Fury
p216
sVNautilus
p217
Vthe Titan of the Depths
p218
sVEvelynn
p219
Vthe Widowmaker
p220
sVGragas
p221
Vthe Rabble Rouser
p222
sVZed
p223
Vthe Master of Shadows
p224
sVVi
p225
Vthe Piltover Enforcer
p226
sVLulu
p227
Vthe Fae Sorceress
p228
sVMaster Yi
p229
Vthe Wuju Bladesman
p230
sVAhri
p231
Vthe Nine-Tailed Fox
p232
sVQuinn
p233
VDemacia's Wings
p234
sVEzreal
p235
Vthe Prodigal Explorer
p236
s.